target datalayout = "e-m:e-p270:32:32-p271:32:32-p272:64:64-i64:64-i128:128-f80:128-n8:16:32:64-S128"
target triple = "x86_64-pc-linux-gnu"

%"struct.std::nothrow_t" = type { i8 }

@_ZSt7nothrow = external global %"struct.std::nothrow_t", align 1

; Function Attrs: mustprogress uwtable
define ptr @zmq_ctx_new() #1 personality ptr @__gxx_personality_v0 {
  %1 = alloca ptr, align 8
  %2 = alloca ptr, align 8
  %3 = alloca ptr, align 8
  %4 = alloca i1, align 1
  %5 = alloca ptr, align 8
  %6 = alloca i32, align 4
  %7 = alloca i32, align 4
  %8 = call noundef zeroext i1 @_ZN3zmq18initialize_networkEv()
  br i1 %8, label %10, label %9

9:                                                ; preds = %0
  store ptr null, ptr %1, align 8
  br label %39

10:                                               ; preds = %0
  call void @llvm.lifetime.start.p0(i64 8, ptr %2) #20
  %11 = call noalias noundef ptr @_ZnwmRKSt9nothrow_t(i64 noundef 648, ptr noundef nonnull align 1 dereferenceable(1) @_ZSt7nothrow) #21
  %12 = icmp eq ptr %11, null
  store i1 false, ptr %4, align 1
  br i1 %12, label %15, label %13

13:                                               ; preds = %10
  store ptr %11, ptr %3, align 8
  store i1 true, ptr %4, align 1
  invoke void @_ZN3zmq5ctx_tC1Ev(ptr noundef nonnull align 8 dereferenceable(648) %11)
          to label %14 unwind label %27

14:                                               ; preds = %13
  br label %15

15:                                               ; preds = %14, %10
  %16 = phi ptr [ %11, %14 ], [ null, %10 ]
  store ptr %16, ptr %2, align 8, !tbaa !10
  %17 = load ptr, ptr %2, align 8, !tbaa !10
  %18 = icmp ne ptr %17, null
  br i1 %18, label %19, label %36

19:                                               ; preds = %15
  %20 = load ptr, ptr %2, align 8, !tbaa !10
  %21 = call noundef zeroext i1 @_ZNK3zmq5ctx_t5validEv(ptr noundef nonnull align 8 dereferenceable(648) %20)
  br i1 %21, label %35, label %22

22:                                               ; preds = %19
  %23 = load ptr, ptr %2, align 8, !tbaa !10
  %24 = icmp eq ptr %23, null
  br i1 %24, label %26, label %25

25:                                               ; preds = %22
  call void @_ZN3zmq5ctx_tD1Ev(ptr noundef nonnull align 8 dereferenceable(648) %23) #20
  call void @_ZdlPv(ptr noundef %23) #22
  br label %26

26:                                               ; preds = %25, %22
  store ptr null, ptr %1, align 8
  store i32 1, ptr %7, align 4
  br label %38

27:                                               ; preds = %13
  %28 = landingpad { ptr, i32 }
          cleanup
  %29 = extractvalue { ptr, i32 } %28, 0
  store ptr %29, ptr %5, align 8
  %30 = extractvalue { ptr, i32 } %28, 1
  store i32 %30, ptr %6, align 4
  %31 = load i1, ptr %4, align 1
  br i1 %31, label %32, label %34

32:                                               ; preds = %27
  %33 = load ptr, ptr %3, align 8
  call void @_ZdlPvRKSt9nothrow_t(ptr noundef %33, ptr noundef nonnull align 1 dereferenceable(1) @_ZSt7nothrow) #22
  br label %34

34:                                               ; preds = %32, %27
  call void @llvm.lifetime.end.p0(i64 8, ptr %2) #20
  br label %41

35:                                               ; preds = %19
  br label %36

36:                                               ; preds = %35, %15
  %37 = load ptr, ptr %2, align 8, !tbaa !10
  store ptr %37, ptr %1, align 8
  store i32 1, ptr %7, align 4
  br label %38

38:                                               ; preds = %36, %26
  call void @llvm.lifetime.end.p0(i64 8, ptr %2) #20
  br label %39

39:                                               ; preds = %38, %9
  %40 = load ptr, ptr %1, align 8
  ret ptr %40

41:                                               ; preds = %34
  %42 = load ptr, ptr %5, align 8
  %43 = load i32, ptr %6, align 4
  %44 = insertvalue { ptr, i32 } poison, ptr %42, 0
  %45 = insertvalue { ptr, i32 } %44, i32 %43, 1
  resume { ptr, i32 } %45
}