; Function Attrs: mustprogress uwtable
define noundef ptr @zmq_ctx_new() local_unnamed_addr #1 personality ptr @__gxx_personality_v0 {
  %1 = tail call noundef zeroext i1 @_ZN3zmq18initialize_networkEv()
  br i1 %1, label %2, label %.thread

2:                                                ; preds = %0
  %3 = tail call noalias noundef dereferenceable_or_null(648) ptr @_ZnwmRKSt9nothrow_t(i64 noundef 648, ptr noundef nonnull align 1 dereferenceable(1) @_ZSt7nothrow) #21
  %4 = icmp eq ptr %3, null
  br i1 %4, label %.thread, label %5

5:                                                ; preds = %2
  invoke void @_ZN3zmq5ctx_tC1Ev(ptr noundef nonnull align 8 dereferenceable(648) %3)
          to label %6 unwind label %9

6:                                                ; preds = %5
  %7 = tail call noundef zeroext i1 @_ZNK3zmq5ctx_t5validEv(ptr noundef nonnull align 8 dereferenceable(648) %3)
  br i1 %7, label %.thread, label %8

8:                                                ; preds = %6
  tail call void @_ZN3zmq5ctx_tD1Ev(ptr noundef nonnull align 8 dereferenceable(648) %3) #22
  tail call void @_ZdlPv(ptr noundef nonnull %3) #23
  br label %.thread

9:                                                ; preds = %5
  %10 = landingpad { ptr, i32 }
          cleanup
  tail call void @_ZdlPvRKSt9nothrow_t(ptr noundef nonnull %3, ptr noundef nonnull align 1 dereferenceable(1) @_ZSt7nothrow) #23
  resume { ptr, i32 } %10

.thread:                                          ; preds = %2, %8, %6, %0
  %.0 = phi ptr [ null, %0 ], [ null, %8 ], [ %3, %6 ], [ null, %2 ]
  ret ptr %.0
}